Certificate:
    Data:
        Version: 3 (0x2)
        Serial Number: 1 (0x1)
    Signature Algorithm: sha256WithRSAEncryption
        Issuer: C=FR, ST=Radius, L=Somewhere, O=Example Inc./emailAddress=admin@example.org, CN=Example Certificate Authority
        Validity
            Not Before: Sep 18 16:42:36 2017 GMT
            Not After : Nov 17 16:42:36 2017 GMT
        Subject: C=FR, ST=Radius, O=Example Inc., CN=Example Server Certificate/emailAddress=admin@example.org
        Subject Public Key Info:
            Public Key Algorithm: rsaEncryption
                Public-Key: (2048 bit)
                Modulus:
                    00:b8:7b:fe:df:53:dc:9c:f9:34:3e:9a:0b:2d:57:
                    68:7d:61:16:e1:be:25:5a:ff:4e:f1:49:11:d4:01:
                    b3:16:75:1c:35:8e:2a:5d:0d:db:dc:1c:af:96:80:
                    20:a6:72:3e:5e:8f:40:6d:5e:4f:b1:04:e6:e7:1e:
                    7a:25:b0:3d:fb:0c:e6:51:86:17:da:38:ee:ef:14:
                    5c:63:1e:0c:6d:8e:a1:ca:6f:af:88:77:9b:2e:4b:
                    c4:b1:a1:9d:9d:68:75:44:f8:52:28:5a:cb:2c:e5:
                    a3:d2:5f:09:f7:1b:56:33:6b:19:d2:ac:f4:f5:70:
                    ba:11:42:f1:95:e9:cb:dc:37:07:06:31:fa:a0:60:
                    72:24:e0:64:46:e8:a7:fb:b6:10:4a:28:39:53:29:
                    37:de:bc:43:48:10:6a:2e:61:db:4f:fc:99:08:09:
                    9f:23:53:97:01:0e:eb:5a:2b:25:fd:c7:73:71:43:
                    2c:91:b1:41:c3:17:0b:83:da:f8:78:31:f5:8f:df:
                    0b:1c:7f:d8:e9:92:59:fb:1b:75:f9:a6:dd:ea:e6:
                    67:94:04:08:19:77:e5:1e:1b:c9:01:dd:b7:d9:80:
                    c8:3d:b5:d1:f7:fe:a8:ef:d3:88:f6:0c:ab:e9:e6:
                    9c:1c:f1:68:ae:6c:50:f6:ac:74:b1:4e:29:fb:e3:
                    7b:41
                Exponent: 65537 (0x10001)
        X509v3 extensions:
            X509v3 Extended Key Usage: 
                TLS Web Server Authentication
            X509v3 CRL Distribution Points: 

                Full Name:
                  URI:http://www.example.com/example_ca.crl

    Signature Algorithm: sha256WithRSAEncryption
         84:86:73:03:c6:0b:d3:fc:ce:52:38:37:47:b2:4b:0e:0c:19:
         60:c7:66:d5:a2:8b:7b:f8:25:08:5e:2e:4b:4c:6d:c5:f9:25:
         04:34:28:12:80:fe:37:c1:06:6a:bc:a5:f6:62:f9:98:54:98:
         2a:6b:98:03:3c:f4:17:d5:78:be:fe:ac:08:28:5a:9b:f2:70:
         24:0a:b6:3d:a1:d2:30:0f:ff:9b:89:1c:0a:31:95:34:19:e4:
         6a:77:df:0b:cd:aa:7c:e3:3c:b2:82:df:c1:79:50:55:cb:1c:
         a7:8e:60:6d:10:6a:98:71:42:1d:04:12:a4:ea:db:f1:7b:05:
         56:37:e1:95:84:ac:69:b8:8b:9a:89:06:6f:dd:ab:d2:74:d7:
         5a:6a:80:98:cb:7d:20:44:f1:41:04:3b:17:96:c7:c0:9e:17:
         9a:f6:68:1f:c1:93:9b:60:8f:67:99:37:e9:3a:57:49:5f:8e:
         d2:8b:6f:c8:d7:6c:f6:a6:3d:ce:41:c8:d3:54:b3:62:b9:70:
         7c:c2:5f:55:fa:95:db:dd:c5:76:f0:0c:41:5e:1d:a1:b3:5d:
         6b:cc:38:0f:c9:55:59:bb:43:69:ac:f3:ef:e4:f9:cf:b7:bb:
         7d:d7:e6:fc:1c:f8:51:75:4a:49:5a:ab:b1:6a:2c:f1:ec:0c:
         0a:38:80:25
-----BEGIN CERTIFICATE-----
MIID2jCCAsKgAwIBAgIBATANBgkqhkiG9w0BAQsFADCBkzELMAkGA1UEBhMCRlIx
DzANBgNVBAgMBlJhZGl1czESMBAGA1UEBwwJU29tZXdoZXJlMRUwEwYDVQQKDAxF
eGFtcGxlIEluYy4xIDAeBgkqhkiG9w0BCQEWEWFkbWluQGV4YW1wbGUub3JnMSYw
JAYDVQQDDB1FeGFtcGxlIENlcnRpZmljYXRlIEF1dGhvcml0eTAeFw0xNzA5MTgx
NjQyMzZaFw0xNzExMTcxNjQyMzZaMHwxCzAJBgNVBAYTAkZSMQ8wDQYDVQQIDAZS
YWRpdXMxFTATBgNVBAoMDEV4YW1wbGUgSW5jLjEjMCEGA1UEAwwaRXhhbXBsZSBT
ZXJ2ZXIgQ2VydGlmaWNhdGUxIDAeBgkqhkiG9w0BCQEWEWFkbWluQGV4YW1wbGUu
b3JnMIIBIjANBgkqhkiG9w0BAQEFAAOCAQ8AMIIBCgKCAQEAuHv+31PcnPk0PpoL
LVdofWEW4b4lWv9O8UkR1AGzFnUcNY4qXQ3b3ByvloAgpnI+Xo9AbV5PsQTm5x56
JbA9+wzmUYYX2jju7xRcYx4MbY6hym+viHebLkvEsaGdnWh1RPhSKFrLLOWj0l8J
9xtWM2sZ0qz09XC6EULxlenL3DcHBjH6oGByJOBkRuin+7YQSig5Uyk33rxDSBBq
LmHbT/yZCAmfI1OXAQ7rWisl/cdzcUMskbFBwxcLg9r4eDH1j98LHH/Y6ZJZ+xt1
+abd6uZnlAQIGXflHhvJAd232YDIPbXR9/6o79OI9gyr6eacHPFormxQ9qx0sU4p
++N7QQIDAQABo08wTTATBgNVHSUEDDAKBggrBgEFBQcDATA2BgNVHR8ELzAtMCug
KaAnhiVodHRwOi8vd3d3LmV4YW1wbGUuY29tL2V4YW1wbGVfY2EuY3JsMA0GCSqG
SIb3DQEBCwUAA4IBAQCEhnMDxgvT/M5SODdHsksODBlgx2bVoot7+CUIXi5LTG3F
+SUENCgSgP43wQZqvKX2YvmYVJgqa5gDPPQX1Xi+/qwIKFqb8nAkCrY9odIwD/+b
iRwKMZU0GeRqd98Lzap84zyygt/BeVBVyxynjmBtEGqYcUIdBBKk6tvxewVWN+GV
hKxpuIuaiQZv3avSdNdaaoCYy30gRPFBBDsXlsfAnhea9mgfwZObYI9nmTfpOldJ
X47Si2/I12z2pj3OQcjTVLNiuXB8wl9V+pXb3cV28AxBXh2hs11rzDgPyVVZu0Np
rPPv5PnPt7t91+b8HPhRdUpJWquxaizx7AwKOIAl
-----END CERTIFICATE-----
