Certificate:
    Data:
        Version: 3 (0x2)
        Serial Number: 2 (0x2)
    Signature Algorithm: sha256WithRSAEncryption
        Issuer: C=FR, ST=Radius, L=Somewhere, O=Example Inc./emailAddress=admin@example.org, CN=Example Certificate Authority
        Validity
            Not Before: Sep 18 16:42:36 2017 GMT
            Not After : Nov 17 16:42:36 2017 GMT
        Subject: C=FR, ST=Radius, O=Example Inc., CN=user@example.org/emailAddress=user@example.org
        Subject Public Key Info:
            Public Key Algorithm: rsaEncryption
                Public-Key: (2048 bit)
                Modulus:
                    00:f4:e2:ef:7e:ff:01:bd:d8:3f:a2:d1:ec:28:ce:
                    af:15:f3:63:aa:55:0e:51:44:b0:d3:7f:b8:1f:a2:
                    aa:b5:0c:a7:a9:2b:ea:f6:24:1d:99:51:93:d9:d1:
                    db:52:3c:4b:27:97:37:13:36:8c:5d:75:8e:e4:0f:
                    2a:70:8f:82:0a:1b:c5:91:75:b5:60:b0:be:8a:5d:
                    87:ad:6b:c5:73:99:9f:f4:fc:ed:9d:e3:a7:ce:84:
                    5a:38:c7:08:d8:b0:a3:5b:56:2c:2a:7c:02:77:8c:
                    74:07:45:14:b1:d4:d6:1e:09:31:ce:00:53:4c:a6:
                    87:61:00:76:a0:6d:cd:85:5e:6e:1f:69:27:44:2f:
                    46:a9:ba:6a:50:ca:62:1d:bd:48:29:fd:79:4c:4c:
                    c5:66:ea:71:31:e9:fc:eb:a8:55:16:33:16:fd:6a:
                    a8:94:3f:e1:64:d2:26:74:bd:d5:0b:58:32:f4:f9:
                    ca:38:7f:9c:6d:f4:8e:11:56:4a:47:04:13:26:cc:
                    31:fd:e7:c1:98:04:ab:90:7d:cc:27:9c:d7:d3:39:
                    e1:82:5a:c6:7f:b2:d1:b7:33:fb:3f:4c:2f:10:43:
                    f0:8a:3e:ff:24:2f:0e:95:fd:20:a0:8c:8f:67:3a:
                    39:72:d2:ca:56:4d:e7:4e:cf:6a:56:5a:92:ae:95:
                    59:6b
                Exponent: 65537 (0x10001)
        X509v3 extensions:
            X509v3 Extended Key Usage: 
                TLS Web Client Authentication
            X509v3 CRL Distribution Points: 

                Full Name:
                  URI:http://www.example.com/example_ca.crl

    Signature Algorithm: sha256WithRSAEncryption
         b6:c7:53:a2:bc:87:48:be:31:75:45:a3:5e:b3:89:c9:79:17:
         0b:a3:1b:95:f2:b9:ac:80:e0:e4:95:65:18:22:5e:ed:86:b3:
         6a:77:2c:34:65:78:1e:d8:df:19:de:38:0f:28:7c:26:c7:7a:
         e5:39:78:ec:da:af:7f:2b:33:ed:d7:c1:3b:35:a2:71:fe:1e:
         7b:b1:ae:20:0b:0d:ab:e4:81:99:93:90:87:d4:ab:52:d4:e1:
         fc:9e:15:a1:28:62:00:2a:11:e0:88:8d:98:49:bf:10:d2:bc:
         aa:50:b8:4b:28:67:98:50:e3:f2:9f:a6:3f:22:43:64:08:f8:
         29:e0:13:30:af:e0:a5:fc:9b:92:ab:19:71:15:3f:47:ed:01:
         79:24:2b:d7:56:a6:80:8f:78:ec:db:b9:a8:1e:49:33:8f:ed:
         02:12:4a:80:b9:17:6d:f0:b3:76:d7:6d:c0:d9:b2:06:aa:c1:
         62:74:3a:8e:64:df:5b:1d:41:90:46:71:3d:73:02:86:4b:fb:
         c3:25:34:5e:87:ef:33:57:28:af:1b:5c:5a:d4:47:5f:1e:0d:
         c8:87:e7:fc:a8:b7:ad:72:53:2b:70:12:4d:10:e0:a0:5a:97:
         c4:91:26:43:d0:fe:e8:72:dc:74:e1:eb:ae:5d:09:cf:0f:e7:
         11:df:5b:87
-----BEGIN CERTIFICATE-----
MIIDzzCCAregAwIBAgIBAjANBgkqhkiG9w0BAQsFADCBkzELMAkGA1UEBhMCRlIx
DzANBgNVBAgMBlJhZGl1czESMBAGA1UEBwwJU29tZXdoZXJlMRUwEwYDVQQKDAxF
eGFtcGxlIEluYy4xIDAeBgkqhkiG9w0BCQEWEWFkbWluQGV4YW1wbGUub3JnMSYw
JAYDVQQDDB1FeGFtcGxlIENlcnRpZmljYXRlIEF1dGhvcml0eTAeFw0xNzA5MTgx
NjQyMzZaFw0xNzExMTcxNjQyMzZaMHExCzAJBgNVBAYTAkZSMQ8wDQYDVQQIDAZS
YWRpdXMxFTATBgNVBAoMDEV4YW1wbGUgSW5jLjEZMBcGA1UEAwwQdXNlckBleGFt
cGxlLm9yZzEfMB0GCSqGSIb3DQEJARYQdXNlckBleGFtcGxlLm9yZzCCASIwDQYJ
KoZIhvcNAQEBBQADggEPADCCAQoCggEBAPTi737/Ab3YP6LR7CjOrxXzY6pVDlFE
sNN/uB+iqrUMp6kr6vYkHZlRk9nR21I8SyeXNxM2jF11juQPKnCPggobxZF1tWCw
vopdh61rxXOZn/T87Z3jp86EWjjHCNiwo1tWLCp8AneMdAdFFLHU1h4JMc4AU0ym
h2EAdqBtzYVebh9pJ0QvRqm6alDKYh29SCn9eUxMxWbqcTHp/OuoVRYzFv1qqJQ/
4WTSJnS91QtYMvT5yjh/nG30jhFWSkcEEybMMf3nwZgEq5B9zCec19M54YJaxn+y
0bcz+z9MLxBD8Io+/yQvDpX9IKCMj2c6OXLSylZN507PalZakq6VWWsCAwEAAaNP
ME0wEwYDVR0lBAwwCgYIKwYBBQUHAwIwNgYDVR0fBC8wLTAroCmgJ4YlaHR0cDov
L3d3dy5leGFtcGxlLmNvbS9leGFtcGxlX2NhLmNybDANBgkqhkiG9w0BAQsFAAOC
AQEAtsdToryHSL4xdUWjXrOJyXkXC6MblfK5rIDg5JVlGCJe7YazancsNGV4Htjf
Gd44Dyh8Jsd65Tl47Nqvfysz7dfBOzWicf4ee7GuIAsNq+SBmZOQh9SrUtTh/J4V
oShiACoR4IiNmEm/ENK8qlC4SyhnmFDj8p+mPyJDZAj4KeATMK/gpfybkqsZcRU/
R+0BeSQr11amgI947Nu5qB5JM4/tAhJKgLkXbfCzdtdtwNmyBqrBYnQ6jmTfWx1B
kEZxPXMChkv7wyU0XofvM1corxtcWtRHXx4NyIfn/Ki3rXJTK3ASTRDgoFqXxJEm
Q9D+6HLcdOHrrl0Jzw/nEd9bhw==
-----END CERTIFICATE-----
