Certificate:
    Data:
        Version: 3 (0x2)
        Serial Number: 2 (0x2)
    Signature Algorithm: sha256WithRSAEncryption
        Issuer: C=FR, ST=Radius, L=Somewhere, O=Example Inc./emailAddress=admin@example.org, CN=Example Certificate Authority
        Validity
            Not Before: Sep 19 04:58:06 2017 GMT
            Not After : Nov 18 04:58:06 2017 GMT
        Subject: C=FR, ST=Radius, O=Example Inc., CN=user@example.org/emailAddress=user@example.org
        Subject Public Key Info:
            Public Key Algorithm: rsaEncryption
                Public-Key: (2048 bit)
                Modulus:
                    00:e3:8b:5d:eb:fe:37:eb:33:d2:26:ce:b5:d8:9e:
                    c0:20:7e:b9:23:14:52:73:60:de:a9:8d:3b:cf:a8:
                    59:69:0f:b6:4b:a7:b8:b8:dd:c6:e6:6e:ff:61:59:
                    30:f7:18:ac:3b:23:49:2a:c3:f5:eb:09:da:82:5e:
                    a2:37:66:d7:85:86:12:96:f9:53:41:94:a2:2f:5e:
                    03:ac:57:60:58:61:38:b3:b7:59:ef:3f:6e:5d:e8:
                    b1:2d:1e:44:3c:f6:ea:0d:64:c8:ec:23:b1:dc:23:
                    0c:78:7a:2b:d8:b7:e0:31:17:ff:a7:4b:d1:f7:b3:
                    47:b9:5d:38:0f:21:f8:4c:b8:07:3b:1b:b2:8c:d9:
                    2f:9d:c8:b3:2b:e9:1f:2d:62:aa:38:94:9b:0d:84:
                    a0:d5:49:c9:e1:85:59:c4:e8:a2:20:95:fc:a4:c1:
                    35:54:a6:a7:44:a8:4c:0d:0e:35:35:ba:7c:53:70:
                    65:c5:40:7d:ba:04:4a:8a:72:9e:af:ec:d6:8c:7a:
                    a6:23:ee:f0:f0:7e:e1:c6:b1:d3:32:f0:3c:b2:06:
                    f0:cf:fb:0d:9e:ca:0e:50:84:6d:9a:6c:7f:9f:0a:
                    d6:db:37:7e:70:40:95:34:c0:87:9e:1c:99:e8:a3:
                    0f:b4:45:08:bb:d2:c2:94:45:c6:92:a4:c7:12:f6:
                    cf:fb
                Exponent: 65537 (0x10001)
        X509v3 extensions:
            X509v3 Extended Key Usage: 
                TLS Web Client Authentication
            X509v3 CRL Distribution Points: 

                Full Name:
                  URI:http://www.example.com/example_ca.crl

    Signature Algorithm: sha256WithRSAEncryption
         b1:c2:1a:c0:6b:57:9b:da:7a:21:45:c1:9f:cb:cd:c6:95:e3:
         c7:2b:53:74:de:b8:6c:4b:30:e4:eb:42:3a:3f:4d:06:59:59:
         c3:94:4a:0b:43:7e:92:3b:48:5c:65:1b:7d:78:62:a9:35:9c:
         10:73:bb:e9:64:0b:24:b9:95:67:2e:58:d7:a8:a0:44:a2:6f:
         ed:24:52:8c:0f:60:8f:20:9a:d1:eb:be:25:ab:33:79:5f:3a:
         2c:12:f6:7d:1d:f5:30:ed:98:00:5d:c0:26:b5:9a:d1:8b:23:
         96:4c:82:73:c8:a2:8d:ae:72:04:db:05:84:39:09:c0:17:41:
         07:ec:fe:7f:ca:9b:88:57:75:cc:df:ff:a1:48:11:18:94:35:
         81:9f:fa:c8:90:5e:41:5e:b2:8a:6f:bd:e2:c4:61:62:23:b5:
         88:78:d0:dd:f5:ef:af:1d:6e:35:31:b7:22:72:24:46:43:ad:
         f4:06:44:21:27:7d:91:0c:63:fc:25:6b:aa:0f:fc:59:d6:79:
         b5:17:c7:89:7d:64:de:a3:ec:b1:33:21:58:13:c7:98:00:39:
         ea:17:48:ab:6e:72:23:b7:34:98:a1:94:f7:6a:4e:ab:0c:14:
         49:17:c5:e5:a7:3c:02:27:3e:53:ce:e3:d1:f9:5f:cd:cf:e4:
         0c:f4:b6:fd
-----BEGIN CERTIFICATE-----
MIIDzzCCAregAwIBAgIBAjANBgkqhkiG9w0BAQsFADCBkzELMAkGA1UEBhMCRlIx
DzANBgNVBAgMBlJhZGl1czESMBAGA1UEBwwJU29tZXdoZXJlMRUwEwYDVQQKDAxF
eGFtcGxlIEluYy4xIDAeBgkqhkiG9w0BCQEWEWFkbWluQGV4YW1wbGUub3JnMSYw
JAYDVQQDDB1FeGFtcGxlIENlcnRpZmljYXRlIEF1dGhvcml0eTAeFw0xNzA5MTkw
NDU4MDZaFw0xNzExMTgwNDU4MDZaMHExCzAJBgNVBAYTAkZSMQ8wDQYDVQQIDAZS
YWRpdXMxFTATBgNVBAoMDEV4YW1wbGUgSW5jLjEZMBcGA1UEAwwQdXNlckBleGFt
cGxlLm9yZzEfMB0GCSqGSIb3DQEJARYQdXNlckBleGFtcGxlLm9yZzCCASIwDQYJ
KoZIhvcNAQEBBQADggEPADCCAQoCggEBAOOLXev+N+sz0ibOtdiewCB+uSMUUnNg
3qmNO8+oWWkPtkunuLjdxuZu/2FZMPcYrDsjSSrD9esJ2oJeojdm14WGEpb5U0GU
oi9eA6xXYFhhOLO3We8/bl3osS0eRDz26g1kyOwjsdwjDHh6K9i34DEX/6dL0fez
R7ldOA8h+Ey4BzsbsozZL53IsyvpHy1iqjiUmw2EoNVJyeGFWcTooiCV/KTBNVSm
p0SoTA0ONTW6fFNwZcVAfboESopynq/s1ox6piPu8PB+4cax0zLwPLIG8M/7DZ7K
DlCEbZpsf58K1ts3fnBAlTTAh54cmeijD7RFCLvSwpRFxpKkxxL2z/sCAwEAAaNP
ME0wEwYDVR0lBAwwCgYIKwYBBQUHAwIwNgYDVR0fBC8wLTAroCmgJ4YlaHR0cDov
L3d3dy5leGFtcGxlLmNvbS9leGFtcGxlX2NhLmNybDANBgkqhkiG9w0BAQsFAAOC
AQEAscIawGtXm9p6IUXBn8vNxpXjxytTdN64bEsw5OtCOj9NBllZw5RKC0N+kjtI
XGUbfXhiqTWcEHO76WQLJLmVZy5Y16igRKJv7SRSjA9gjyCa0eu+JaszeV86LBL2
fR31MO2YAF3AJrWa0YsjlkyCc8iija5yBNsFhDkJwBdBB+z+f8qbiFd1zN//oUgR
GJQ1gZ/6yJBeQV6yim+94sRhYiO1iHjQ3fXvrx1uNTG3InIkRkOt9AZEISd9kQxj
/CVrqg/8WdZ5tRfHiX1k3qPssTMhWBPHmAA56hdIq25yI7c0mKGU92pOqwwUSRfF
5ac8Aic+U87j0flfzc/kDPS2/Q==
-----END CERTIFICATE-----
